target datalayout = "e-m:e-p270:32:32-p271:32:32-p272:64:64-i64:64-i128:128-f80:128-n8:16:32:64-S128"
target triple = "x86_64-pc-linux-gnu"

%class.HotSpotCompiledCodeStream = type { ptr, ptr, ptr, i8, %class.objArrayHandle, ptr, ptr, ptr }
%class.objArrayHandle = type { %class.Handle }
%class.Handle = type { ptr }
%"class.HotSpotCompiledCodeStream::Chunk" = type <{ ptr, i32, [4 x i8] }>

; Function Attrs: mustprogress nounwind uwtable
define linkonce_odr hidden noundef ptr @_ZNK25HotSpotCompiledCodeStream5Chunk4nextEv(ptr noundef nonnull align 8 dereferenceable(12) %0) #1 comdat align 2 {
  %2 = alloca ptr, align 8
  store ptr %0, ptr %2, align 8
  %3 = load ptr, ptr %2, align 8
  %4 = getelementptr inbounds %"class.HotSpotCompiledCodeStream::Chunk", ptr %3, i32 0, i32 0
  %5 = load ptr, ptr %4, align 8
  ret ptr %5
}

; Function Attrs: mustprogress nounwind uwtable
define linkonce_odr hidden noundef i32 @_ZNK25HotSpotCompiledCodeStream5Chunk4sizeEv(ptr noundef nonnull align 8 dereferenceable(12) %0) #1 comdat align 2 {
  %2 = alloca ptr, align 8
  store ptr %0, ptr %2, align 8
  %3 = load ptr, ptr %2, align 8
  %4 = getelementptr inbounds %"class.HotSpotCompiledCodeStream::Chunk", ptr %3, i32 0, i32 1
  %5 = load i32, ptr %4, align 8
  ret i32 %5
}

; Function Attrs: mustprogress nounwind uwtable
define linkonce_odr hidden noundef ptr @_ZNK25HotSpotCompiledCodeStream5Chunk4dataEv(ptr noundef nonnull align 8 dereferenceable(12) %0) #1 comdat align 2 {
  %2 = alloca ptr, align 8
  store ptr %0, ptr %2, align 8
  %3 = load ptr, ptr %2, align 8
  %4 = getelementptr inbounds i8, ptr %3, i64 12
  ret ptr %4
}

; Function Attrs: mustprogress nounwind uwtable
define hidden noundef i32 @_ZNK25HotSpotCompiledCodeStream6offsetEv(ptr noundef nonnull align 8 dereferenceable(64) %0) #1 align 2 {
  %2 = alloca ptr, align 8
  %3 = alloca i32, align 4
  %4 = alloca ptr, align 8
  store ptr %0, ptr %2, align 8
  %5 = load ptr, ptr %2, align 8
  store i32 0, ptr %3, align 4
  %6 = getelementptr inbounds %class.HotSpotCompiledCodeStream, ptr %5, i32 0, i32 0
  %7 = load ptr, ptr %6, align 8
  store ptr %7, ptr %4, align 8
  br label %8

8:                                                ; preds = %34, %1
  %9 = load ptr, ptr %4, align 8
  %10 = icmp ne ptr %9, null
  br i1 %10, label %11, label %37

11:                                               ; preds = %8
  %12 = load ptr, ptr %4, align 8
  %13 = getelementptr inbounds %class.HotSpotCompiledCodeStream, ptr %5, i32 0, i32 1
  %14 = load ptr, ptr %13, align 8
  %15 = icmp eq ptr %12, %14
  br i1 %15, label %16, label %28

16:                                               ; preds = %11
  %17 = getelementptr inbounds %class.HotSpotCompiledCodeStream, ptr %5, i32 0, i32 2
  %18 = load ptr, ptr %17, align 8
  %19 = load ptr, ptr %4, align 8
  %20 = call noundef ptr @_ZNK25HotSpotCompiledCodeStream5Chunk4dataEv(ptr noundef nonnull align 8 dereferenceable(12) %19)
  %21 = ptrtoint ptr %18 to i64
  %22 = ptrtoint ptr %20 to i64
  %23 = sub i64 %21, %22
  %24 = load i32, ptr %3, align 4
  %25 = zext i32 %24 to i64
  %26 = add nsw i64 %25, %23
  %27 = trunc i64 %26 to i32
  store i32 %27, ptr %3, align 4
  br label %37

28:                                               ; preds = %11
  %29 = load ptr, ptr %4, align 8
  %30 = call noundef i32 @_ZNK25HotSpotCompiledCodeStream5Chunk4sizeEv(ptr noundef nonnull align 8 dereferenceable(12) %29)
  %31 = load i32, ptr %3, align 4
  %32 = add i32 %31, %30
  store i32 %32, ptr %3, align 4
  br label %33

33:                                               ; preds = %28
  br label %34

34:                                               ; preds = %33
  %35 = load ptr, ptr %4, align 8
  %36 = call noundef ptr @_ZNK25HotSpotCompiledCodeStream5Chunk4nextEv(ptr noundef nonnull align 8 dereferenceable(12) %35)
  store ptr %36, ptr %4, align 8
  br label %8, !llvm.loop !6

37:                                               ; preds = %16, %8
  %38 = load i32, ptr %3, align 4
  ret i32 %38
}