; Function Attrs: mustprogress nofree norecurse nosync nounwind willreturn memory(read, inaccessiblemem: none) uwtable
define hidden noundef i32 @_ZNK25HotSpotCompiledCodeStream6offsetEv(ptr nocapture noundef nonnull readonly align 8 dereferenceable(64) %0) local_unnamed_addr #4 align 2 {
  %.011 = load ptr, ptr %0, align 8
  %.not12 = icmp eq ptr %.011, null
  br i1 %.not12, label %.loopexit, label %.lr.ph

.lr.ph:                                           ; preds = %1
  %2 = getelementptr inbounds i8, ptr %0, i64 8
  %3 = load ptr, ptr %2, align 8
  br label %4

4:                                                ; preds = %.lr.ph, %15
  %.014 = phi ptr [ %.011, %.lr.ph ], [ %.0, %15 ]
  %.0813 = phi i32 [ 0, %.lr.ph ], [ %18, %15 ]
  %5 = icmp eq ptr %.014, %3
  br i1 %5, label %6, label %15

6:                                                ; preds = %4
  %7 = getelementptr inbounds i8, ptr %0, i64 16
  %8 = load ptr, ptr %7, align 8
  %9 = getelementptr inbounds i8, ptr %.014, i64 12
  %10 = ptrtoint ptr %8 to i64
  %11 = ptrtoint ptr %9 to i64
  %12 = sub i64 %10, %11
  %13 = trunc i64 %12 to i32
  %14 = add i32 %.0813, %13
  br label %.loopexit

15:                                               ; preds = %4
  %16 = getelementptr inbounds i8, ptr %.014, i64 8
  %17 = load i32, ptr %16, align 8
  %18 = add i32 %17, %.0813
  %.0 = load ptr, ptr %.014, align 8
  %.not = icmp eq ptr %.0, null
  br i1 %.not, label %.loopexit, label %4, !llvm.loop !6

.loopexit:                                        ; preds = %15, %1, %6
  %.1 = phi i32 [ %14, %6 ], [ 0, %1 ], [ %18, %15 ]
  ret i32 %.1
}